target datalayout = "e-m:e-p270:32:32-p271:32:32-p272:64:64-i64:64-i128:128-f80:128-n8:16:32:64-S128"
target triple = "x86_64-pc-linux-gnu"

@.str = private unnamed_addr constant [49 x i8] c"../openssl/providers/implementations/kdfs/hkdf.c\00", align 1
@__func__.HKDF_Extract = private unnamed_addr constant [13 x i8] c"HKDF_Extract\00", align 1
@.str.1 = private unnamed_addr constant [5 x i8] c"HMAC\00", align 1

; Function Attrs: nounwind uwtable
define internal i32 @HKDF_Extract(ptr noundef %0, ptr noundef %1, ptr noundef %2, i64 noundef %3, ptr noundef %4, i64 noundef %5, ptr noundef %6, i64 noundef %7) #0 {
  %9 = alloca i32, align 4
  %10 = alloca ptr, align 8
  %11 = alloca ptr, align 8
  %12 = alloca ptr, align 8
  %13 = alloca i64, align 8
  %14 = alloca ptr, align 8
  %15 = alloca i64, align 8
  %16 = alloca ptr, align 8
  %17 = alloca i64, align 8
  %18 = alloca i32, align 4
  %19 = alloca i32, align 4
  store ptr %0, ptr %10, align 8, !tbaa !32
  store ptr %1, ptr %11, align 8, !tbaa !34
  store ptr %2, ptr %12, align 8, !tbaa !28
  store i64 %3, ptr %13, align 8, !tbaa !29
  store ptr %4, ptr %14, align 8, !tbaa !28
  store i64 %5, ptr %15, align 8, !tbaa !29
  store ptr %6, ptr %16, align 8, !tbaa !28
  store i64 %7, ptr %17, align 8, !tbaa !29
  call void @llvm.lifetime.start.p0(i64 4, ptr %18) #6
  %20 = load ptr, ptr %11, align 8, !tbaa !34
  %21 = call i32 @EVP_MD_get_size(ptr noundef %20)
  store i32 %21, ptr %18, align 4, !tbaa !35
  %22 = load i32, ptr %18, align 4, !tbaa !35
  %23 = icmp sle i32 %22, 0
  br i1 %23, label %24, label %25

24:                                               ; preds = %8
  store i32 0, ptr %9, align 4
  store i32 1, ptr %19, align 4
  br label %46

25:                                               ; preds = %8
  %26 = load i64, ptr %17, align 8, !tbaa !29
  %27 = load i32, ptr %18, align 4, !tbaa !35
  %28 = sext i32 %27 to i64
  %29 = icmp ne i64 %26, %28
  br i1 %29, label %30, label %31

30:                                               ; preds = %25
  call void @ERR_new()
  call void @ERR_set_debug(ptr noundef @.str, i32 noundef 516, ptr noundef @__func__.HKDF_Extract)
  call void (i32, i32, ptr, ...) @ERR_set_error(i32 noundef 57, i32 noundef 139, ptr noundef null)
  store i32 0, ptr %9, align 4
  store i32 1, ptr %19, align 4
  br label %46

31:                                               ; preds = %25
  %32 = load ptr, ptr %10, align 8, !tbaa !32
  %33 = load ptr, ptr %11, align 8, !tbaa !34
  %34 = call ptr @EVP_MD_get0_name(ptr noundef %33)
  %35 = load ptr, ptr %12, align 8, !tbaa !28
  %36 = load i64, ptr %13, align 8, !tbaa !29
  %37 = load ptr, ptr %14, align 8, !tbaa !28
  %38 = load i64, ptr %15, align 8, !tbaa !29
  %39 = load ptr, ptr %16, align 8, !tbaa !28
  %40 = load ptr, ptr %11, align 8, !tbaa !34
  %41 = call i32 @EVP_MD_get_size(ptr noundef %40)
  %42 = sext i32 %41 to i64
  %43 = call ptr @EVP_Q_mac(ptr noundef %32, ptr noundef @.str.1, ptr noundef null, ptr noundef %34, ptr noundef null, ptr noundef %35, i64 noundef %36, ptr noundef %37, i64 noundef %38, ptr noundef %39, i64 noundef %42, ptr noundef null)
  %44 = icmp ne ptr %43, null
  %45 = zext i1 %44 to i32
  store i32 %45, ptr %9, align 4
  store i32 1, ptr %19, align 4
  br label %46

46:                                               ; preds = %31, %30, %24
  call void @llvm.lifetime.end.p0(i64 4, ptr %18) #6
  %47 = load i32, ptr %9, align 4
  ret i32 %47
}