; Function Attrs: nounwind uwtable
define internal fastcc range(i32 0, 2) i32 @HKDF_Extract(ptr noundef %0, ptr noundef nonnull %1, ptr noundef %2, i64 noundef %3, ptr noundef %4, i64 noundef %5, ptr noundef %6, i64 noundef %7) unnamed_addr #0 {
  %9 = tail call i32 @EVP_MD_get_size(ptr noundef nonnull %1) #7
  %10 = icmp slt i32 %9, 1
  br i1 %10, label %21, label %11

11:                                               ; preds = %8
  %12 = zext nneg i32 %9 to i64
  %.not = icmp eq i64 %7, %12
  br i1 %.not, label %14, label %13

13:                                               ; preds = %11
  tail call void @ERR_new() #7
  tail call void @ERR_set_debug(ptr noundef nonnull @.str, i32 noundef 516, ptr noundef nonnull @__func__.HKDF_Extract) #7
  tail call void (i32, i32, ptr, ...) @ERR_set_error(i32 noundef 57, i32 noundef 139, ptr noundef null) #7
  br label %21

14:                                               ; preds = %11
  %15 = tail call ptr @EVP_MD_get0_name(ptr noundef nonnull %1) #7
  %16 = tail call i32 @EVP_MD_get_size(ptr noundef nonnull %1) #7
  %17 = sext i32 %16 to i64
  %18 = tail call ptr @EVP_Q_mac(ptr noundef %0, ptr noundef nonnull @.str.1, ptr noundef null, ptr noundef %15, ptr noundef null, ptr noundef %2, i64 noundef %3, ptr noundef %4, i64 noundef %5, ptr noundef %6, i64 noundef %17, ptr noundef null) #7
  %19 = icmp ne ptr %18, null
  %20 = zext i1 %19 to i32
  br label %21

21:                                               ; preds = %8, %14, %13
  %.0 = phi i32 [ 0, %13 ], [ %20, %14 ], [ 0, %8 ]
  ret i32 %.0
}